target datalayout = "e-m:e-p270:32:32-p271:32:32-p272:64:64-i64:64-i128:128-f80:128-n8:16:32:64-S128"
target triple = "x86_64-pc-linux-gnu"

%"class.std::__cxx11::basic_string" = type { %"struct.std::__cxx11::basic_string<char>::_Alloc_hider", i64, %union.anon }
%"struct.std::__cxx11::basic_string<char>::_Alloc_hider" = type { ptr }
%union.anon = type { i64, [8 x i8] }
%class.V3Number = type { %class.V3NumberData, ptr, ptr }
%class.V3NumberData = type <{ %union.anon.0, i32, i8, i8, [2 x i8] }>
%union.anon.0 = type { %"class.std::__cxx11::basic_string" }
%"struct.V3NumberData::ValueAndX" = type { i32, i32 }
%class.V3ErrorCode = type { i8 }
%union.anon.54 = type { double }
%"struct.std::_Vector_base" = type { %"struct.std::_Vector_base<V3NumberData::ValueAndX, std::allocator<V3NumberData::ValueAndX>>::_Vector_impl" }
%"struct.std::_Vector_base<V3NumberData::ValueAndX, std::allocator<V3NumberData::ValueAndX>>::_Vector_impl" = type { %"struct.std::_Vector_base<V3NumberData::ValueAndX, std::allocator<V3NumberData::ValueAndX>>::_Vector_impl_data" }
%"struct.std::_Vector_base<V3NumberData::ValueAndX, std::allocator<V3NumberData::ValueAndX>>::_Vector_impl_data" = type { ptr, ptr, ptr }
%"struct.std::array" = type { [4 x %"struct.V3NumberData::ValueAndX"] }

@.str.15 = private unnamed_addr constant [114 x i8] c"generated/home/dtcxzyw/WorkSpace/Projects/compilers/llvm-opt-benchmark/bench/verilator/verilator/src/V3Number.cpp\00", align 1
@.str.46 = private unnamed_addr constant [46 x i8] c"Real operation on wrong sized/non-real number\00", align 1
@.str.51 = private unnamed_addr constant [50 x i8] c"Number operation called with same source and dest\00", align 1
@.str.74 = private unnamed_addr constant [52 x i8] c"Number operation called with non-double argument: '\00", align 1
@.str.95 = private unnamed_addr constant [112 x i8] c"generated/home/dtcxzyw/WorkSpace/Projects/compilers/llvm-opt-benchmark/bench/verilator/verilator/src/V3Number.h\00", align 1
@.str.96 = private unnamed_addr constant [41 x i8] c"`num` member accessed when data type is \00", align 1
@.str.97 = private unnamed_addr constant [14 x i8] c"UNINITIALIZED\00", align 1
@.str.98 = private unnamed_addr constant [6 x i8] c"LOGIC\00", align 1
@.str.99 = private unnamed_addr constant [7 x i8] c"DOUBLE\00", align 1
@.str.100 = private unnamed_addr constant [7 x i8] c"STRING\00", align 1

; Function Attrs: mustprogress nounwind uwtable
define linkonce_odr dso_local noundef ptr @_ZNKSt6vectorIN12V3NumberData9ValueAndXESaIS1_EE11_M_data_ptrIS1_EEPT_S6_(ptr noundef nonnull align 8 dereferenceable(24) %0, ptr noundef %1) #7 comdat align 2 {
  %3 = alloca ptr, align 8
  %4 = alloca ptr, align 8
  store ptr %0, ptr %3, align 8, !tbaa !313
  store ptr %1, ptr %4, align 8, !tbaa !34
  %5 = load ptr, ptr %4, align 8, !tbaa !34
  ret ptr %5
}

; Function Attrs: mustprogress nounwind uwtable
define linkonce_odr dso_local noundef ptr @_ZNSt14__array_traitsIN12V3NumberData9ValueAndXELm4EE6_S_ptrERA4_KS1_(ptr noundef nonnull align 4 dereferenceable(32) %0) #7 comdat align 2 {
  %2 = alloca ptr, align 8
  store ptr %0, ptr %2, align 8, !tbaa !34
  %3 = load ptr, ptr %2, align 8, !tbaa !34
  %4 = getelementptr inbounds [4 x %"struct.V3NumberData::ValueAndX"], ptr %3, i64 0, i64 0
  ret ptr %4
}

; Function Attrs: mustprogress nounwind uwtable
define linkonce_odr dso_local noundef ptr @_ZNKSt6vectorIN12V3NumberData9ValueAndXESaIS1_EE4dataEv(ptr noundef nonnull align 8 dereferenceable(24) %0) #7 comdat align 2 {
  %2 = alloca ptr, align 8
  store ptr %0, ptr %2, align 8, !tbaa !313
  %3 = load ptr, ptr %2, align 8
  %4 = getelementptr inbounds nuw %"struct.std::_Vector_base", ptr %3, i32 0, i32 0
  %5 = getelementptr inbounds nuw %"struct.std::_Vector_base<V3NumberData::ValueAndX, std::allocator<V3NumberData::ValueAndX>>::_Vector_impl_data", ptr %4, i32 0, i32 0
  %6 = load ptr, ptr %5, align 8, !tbaa !315
  %7 = call noundef ptr @_ZNKSt6vectorIN12V3NumberData9ValueAndXESaIS1_EE11_M_data_ptrIS1_EEPT_S6_(ptr noundef nonnull align 8 dereferenceable(24) %3, ptr noundef %6) #3
  ret ptr %7
}

; Function Attrs: mustprogress nounwind uwtable
define linkonce_odr dso_local noundef ptr @_ZNKSt5arrayIN12V3NumberData9ValueAndXELm4EE4dataEv(ptr noundef nonnull align 4 dereferenceable(32) %0) #7 comdat align 2 {
  %2 = alloca ptr, align 8
  store ptr %0, ptr %2, align 8, !tbaa !317
  %3 = load ptr, ptr %2, align 8
  %4 = getelementptr inbounds nuw %"struct.std::array", ptr %3, i32 0, i32 0
  %5 = call noundef ptr @_ZNSt14__array_traitsIN12V3NumberData9ValueAndXELm4EE6_S_ptrERA4_KS1_(ptr noundef nonnull align 4 dereferenceable(32) %4) #3
  ret ptr %5
}

; Function Attrs: mustprogress nounwind uwtable
define linkonce_odr dso_local noundef zeroext i1 @_ZNK12V3NumberData14isInlineNumberEv(ptr noundef nonnull align 8 dereferenceable(40) %0) #7 comdat align 2 {
  %2 = alloca ptr, align 8
  store ptr %0, ptr %2, align 8, !tbaa !42
  %3 = load ptr, ptr %2, align 8
  %4 = getelementptr inbounds nuw %class.V3NumberData, ptr %3, i32 0, i32 1
  %5 = load i32, ptr %4, align 8, !tbaa !44
  %6 = icmp sle i32 %5, 128
  br i1 %6, label %7, label %17

7:                                                ; preds = %1
  %8 = getelementptr inbounds nuw %class.V3NumberData, ptr %3, i32 0, i32 2
  %9 = load i8, ptr %8, align 4, !tbaa !45
  %10 = icmp eq i8 %9, 2
  br i1 %10, label %15, label %11

11:                                               ; preds = %7
  %12 = getelementptr inbounds nuw %class.V3NumberData, ptr %3, i32 0, i32 2
  %13 = load i8, ptr %12, align 4, !tbaa !45
  %14 = icmp eq i8 %13, 1
  br label %15

15:                                               ; preds = %11, %7
  %16 = phi i1 [ true, %7 ], [ %14, %11 ]
  br label %17

17:                                               ; preds = %15, %1
  %18 = phi i1 [ false, %1 ], [ %16, %15 ]
  ret i1 %18
}

; Function Attrs: mustprogress uwtable
define linkonce_odr dso_local noundef nonnull align 8 dereferenceable(8) ptr @_ZlsRSoRKN12V3NumberData16V3NumberDataTypeE(ptr noundef nonnull align 8 dereferenceable(8) %0, ptr noundef nonnull align 1 dereferenceable(1) %1) #4 comdat {
  %3 = alloca ptr, align 8
  %4 = alloca ptr, align 8
  %5 = alloca ptr, align 8
  store ptr %0, ptr %4, align 8, !tbaa !22
  store ptr %1, ptr %5, align 8, !tbaa !284
  %6 = load ptr, ptr %5, align 8, !tbaa !284
  %7 = load i8, ptr %6, align 1, !tbaa !334
  switch i8 %7, label %20 [
    i8 0, label %8
    i8 1, label %11
    i8 2, label %14
    i8 3, label %17
  ]

8:                                                ; preds = %2
  %9 = load ptr, ptr %4, align 8, !tbaa !22
  %10 = call noundef nonnull align 8 dereferenceable(8) ptr @_ZStlsISt11char_traitsIcEERSt13basic_ostreamIcT_ES5_PKc(ptr noundef nonnull align 8 dereferenceable(8) %9, ptr noundef @.str.97)
  store ptr %10, ptr %3, align 8
  br label %22

11:                                               ; preds = %2
  %12 = load ptr, ptr %4, align 8, !tbaa !22
  %13 = call noundef nonnull align 8 dereferenceable(8) ptr @_ZStlsISt11char_traitsIcEERSt13basic_ostreamIcT_ES5_PKc(ptr noundef nonnull align 8 dereferenceable(8) %12, ptr noundef @.str.98)
  store ptr %13, ptr %3, align 8
  br label %22

14:                                               ; preds = %2
  %15 = load ptr, ptr %4, align 8, !tbaa !22
  %16 = call noundef nonnull align 8 dereferenceable(8) ptr @_ZStlsISt11char_traitsIcEERSt13basic_ostreamIcT_ES5_PKc(ptr noundef nonnull align 8 dereferenceable(8) %15, ptr noundef @.str.99)
  store ptr %16, ptr %3, align 8
  br label %22

17:                                               ; preds = %2
  %18 = load ptr, ptr %4, align 8, !tbaa !22
  %19 = call noundef nonnull align 8 dereferenceable(8) ptr @_ZStlsISt11char_traitsIcEERSt13basic_ostreamIcT_ES5_PKc(ptr noundef nonnull align 8 dereferenceable(8) %18, ptr noundef @.str.100)
  store ptr %19, ptr %3, align 8
  br label %22

20:                                               ; preds = %2
  %21 = load ptr, ptr %4, align 8, !tbaa !22
  store ptr %21, ptr %3, align 8
  br label %22

22:                                               ; preds = %20, %17, %14, %11, %8
  %23 = load ptr, ptr %3, align 8
  ret ptr %23
}

; Function Attrs: mustprogress nounwind uwtable
define linkonce_odr dso_local noundef zeroext i1 @_ZNK12V3NumberData8isNumberEv(ptr noundef nonnull align 8 dereferenceable(40) %0) #7 comdat align 2 {
  %2 = alloca ptr, align 8
  store ptr %0, ptr %2, align 8, !tbaa !42
  %3 = load ptr, ptr %2, align 8
  %4 = getelementptr inbounds nuw %class.V3NumberData, ptr %3, i32 0, i32 2
  %5 = load i8, ptr %4, align 4, !tbaa !45
  %6 = icmp eq i8 %5, 2
  br i1 %6, label %11, label %7

7:                                                ; preds = %1
  %8 = getelementptr inbounds nuw %class.V3NumberData, ptr %3, i32 0, i32 2
  %9 = load i8, ptr %8, align 4, !tbaa !45
  %10 = icmp eq i8 %9, 1
  br label %11

11:                                               ; preds = %7, %1
  %12 = phi i1 [ true, %1 ], [ %10, %7 ]
  ret i1 %12
}

; Function Attrs: mustprogress nounwind uwtable
define linkonce_odr dso_local noundef i32 @_ZNK12V3NumberData5widthEv(ptr noundef nonnull align 8 dereferenceable(40) %0) #7 comdat align 2 {
  %2 = alloca ptr, align 8
  store ptr %0, ptr %2, align 8, !tbaa !42
  %3 = load ptr, ptr %2, align 8
  %4 = getelementptr inbounds nuw %class.V3NumberData, ptr %3, i32 0, i32 1
  %5 = load i32, ptr %4, align 8, !tbaa !44
  ret i32 %5
}

; Function Attrs: mustprogress nounwind uwtable
define linkonce_odr dso_local noundef zeroext i8 @_ZNK12V3NumberData4typeEv(ptr noundef nonnull align 8 dereferenceable(40) %0) #7 comdat align 2 {
  %2 = alloca ptr, align 8
  store ptr %0, ptr %2, align 8, !tbaa !42
  %3 = load ptr, ptr %2, align 8
  %4 = getelementptr inbounds nuw %class.V3NumberData, ptr %3, i32 0, i32 2
  %5 = load i8, ptr %4, align 4, !tbaa !45
  ret i8 %5
}

; Function Attrs: mustprogress uwtable
define linkonce_odr dso_local noundef ptr @_ZNK12V3NumberData3numEv(ptr noundef nonnull align 8 dereferenceable(40) %0) #4 comdat align 2 {
  %2 = alloca ptr, align 8
  %3 = alloca %class.V3ErrorCode, align 1
  store ptr %0, ptr %2, align 8, !tbaa !42
  %4 = load ptr, ptr %2, align 8
  br label %5

5:                                                ; preds = %1
  %6 = call noundef zeroext i1 @_ZNK12V3NumberData8isNumberEv(ptr noundef nonnull align 8 dereferenceable(40) %4)
  %7 = xor i1 %6, true
  %8 = xor i1 %7, true
  %9 = xor i1 %8, true
  %10 = zext i1 %9 to i64
  %11 = call i64 @llvm.expect.i64(i64 %10, i64 0)
  %12 = icmp ne i64 %11, 0
  br i1 %12, label %13, label %21

13:                                               ; preds = %5
  call void @_ZN11V3ErrorCodeC2ENS_2enE(ptr noundef nonnull align 1 dereferenceable(1) %3, i8 noundef zeroext 4)
  %14 = getelementptr inbounds nuw %class.V3ErrorCode, ptr %3, i32 0, i32 0
  %15 = load i8, ptr %14, align 1
  %16 = call noundef nonnull align 8 dereferenceable(112) ptr @_ZN7V3Error19v3errorPrepFileLineB5cxx11E11V3ErrorCodePKci(i8 %15, ptr noundef @.str.95, i32 noundef 198)
  %17 = call noundef nonnull align 8 dereferenceable(112) ptr @_ZN7V3Error10v3errorStrB5cxx11Ev()
  %18 = call noundef nonnull align 8 dereferenceable(8) ptr @_ZStlsISt11char_traitsIcEERSt13basic_ostreamIcT_ES5_PKc(ptr noundef nonnull align 8 dereferenceable(8) %17, ptr noundef @.str.96)
  %19 = getelementptr inbounds nuw %class.V3NumberData, ptr %4, i32 0, i32 2
  %20 = call noundef nonnull align 8 dereferenceable(8) ptr @_ZlsRSoRKN12V3NumberData16V3NumberDataTypeE(ptr noundef nonnull align 8 dereferenceable(8) %18, ptr noundef nonnull align 1 dereferenceable(1) %19)
  call void @_Z15v3errorEndFatalRNSt7__cxx1119basic_ostringstreamIcSt11char_traitsIcESaIcEEE(ptr noundef nonnull align 8 dereferenceable(112) %20) #25
  unreachable

21:                                               ; preds = %5
  br label %22

22:                                               ; preds = %21
  %23 = call noundef zeroext i1 @_ZNK12V3NumberData14isInlineNumberEv(ptr noundef nonnull align 8 dereferenceable(40) %4)
  br i1 %23, label %24, label %27

24:                                               ; preds = %22
  %25 = getelementptr inbounds nuw %class.V3NumberData, ptr %4, i32 0, i32 0
  %26 = call noundef ptr @_ZNKSt5arrayIN12V3NumberData9ValueAndXELm4EE4dataEv(ptr noundef nonnull align 4 dereferenceable(32) %25) #3
  br label %30

27:                                               ; preds = %22
  %28 = getelementptr inbounds nuw %class.V3NumberData, ptr %4, i32 0, i32 0
  %29 = call noundef ptr @_ZNKSt6vectorIN12V3NumberData9ValueAndXESaIS1_EE4dataEv(ptr noundef nonnull align 8 dereferenceable(24) %28) #3
  br label %30

30:                                               ; preds = %27, %24
  %31 = phi ptr [ %26, %24 ], [ %29, %27 ]
  ret ptr %31
}

; Function Attrs: mustprogress nounwind uwtable
define linkonce_odr dso_local noundef i32 @_ZNK8V3Number5widthEv(ptr noundef nonnull align 8 dereferenceable(56) %0) #7 comdat align 2 {
  %2 = alloca ptr, align 8
  store ptr %0, ptr %2, align 8, !tbaa !4
  %3 = load ptr, ptr %2, align 8
  %4 = getelementptr inbounds nuw %class.V3Number, ptr %3, i32 0, i32 0
  %5 = call noundef i32 @_ZNK12V3NumberData5widthEv(ptr noundef nonnull align 8 dereferenceable(40) %4)
  ret i32 %5
}

; Function Attrs: mustprogress nounwind uwtable
define linkonce_odr dso_local noundef zeroext i8 @_ZNK8V3Number8dataTypeEv(ptr noundef nonnull align 8 dereferenceable(56) %0) #7 comdat align 2 {
  %2 = alloca ptr, align 8
  store ptr %0, ptr %2, align 8, !tbaa !4
  %3 = load ptr, ptr %2, align 8
  %4 = getelementptr inbounds nuw %class.V3Number, ptr %3, i32 0, i32 0
  %5 = call noundef zeroext i8 @_ZNK12V3NumberData4typeEv(ptr noundef nonnull align 8 dereferenceable(40) %4)
  ret i8 %5
}

; Function Attrs: mustprogress uwtable
define dso_local noundef double @_ZNK8V3Number8toDoubleEv(ptr noundef nonnull align 8 dereferenceable(56) %0) #4 align 2 {
  %2 = alloca ptr, align 8
  %3 = alloca %class.V3ErrorCode, align 1
  %4 = alloca %union.anon.54, align 8
  store ptr %0, ptr %2, align 8, !tbaa !4
  %5 = load ptr, ptr %2, align 8
  br label %6

6:                                                ; preds = %1
  %7 = call noundef zeroext i1 @_ZNK8V3Number8isDoubleEv(ptr noundef nonnull align 8 dereferenceable(56) %5)
  br i1 %7, label %8, label %11

8:                                                ; preds = %6
  %9 = call noundef i32 @_ZNK8V3Number5widthEv(ptr noundef nonnull align 8 dereferenceable(56) %5)
  %10 = icmp eq i32 %9, 64
  br label %11

11:                                               ; preds = %8, %6
  %12 = phi i1 [ false, %6 ], [ %10, %8 ]
  %13 = xor i1 %12, true
  %14 = xor i1 %13, true
  %15 = xor i1 %14, true
  %16 = zext i1 %15 to i64
  %17 = call i64 @llvm.expect.i64(i64 %16, i64 0)
  %18 = icmp ne i64 %17, 0
  br i1 %18, label %19, label %25

19:                                               ; preds = %11
  call void @_ZN11V3ErrorCodeC2ENS_2enE(ptr noundef nonnull align 1 dereferenceable(1) %3, i8 noundef zeroext 4)
  %20 = getelementptr inbounds nuw %class.V3ErrorCode, ptr %3, i32 0, i32 0
  %21 = load i8, ptr %20, align 1
  %22 = call noundef nonnull align 8 dereferenceable(112) ptr @_ZN7V3Error19v3errorPrepFileLineB5cxx11E11V3ErrorCodePKci(i8 %21, ptr noundef @.str.15, i32 noundef 951)
  %23 = call noundef nonnull align 8 dereferenceable(112) ptr @_ZN7V3Error10v3errorStrB5cxx11Ev()
  %24 = call noundef nonnull align 8 dereferenceable(8) ptr @_ZStlsISt11char_traitsIcEERSt13basic_ostreamIcT_ES5_PKc(ptr noundef nonnull align 8 dereferenceable(8) %23, ptr noundef @.str.46)
  call void @_ZNK8V3Number15v3errorEndFatalERKNSt7__cxx1119basic_ostringstreamIcSt11char_traitsIcESaIcEEE(ptr noundef nonnull align 8 dereferenceable(56) %5, ptr noundef nonnull align 8 dereferenceable(112) %24) #25
  unreachable

25:                                               ; preds = %11
  br label %26

26:                                               ; preds = %25
  call void @llvm.lifetime.start.p0(i64 8, ptr %4) #3
  %27 = getelementptr inbounds nuw %class.V3Number, ptr %5, i32 0, i32 0
  %28 = call noundef ptr @_ZNK12V3NumberData3numEv(ptr noundef nonnull align 8 dereferenceable(40) %27)
  %29 = getelementptr inbounds %"struct.V3NumberData::ValueAndX", ptr %28, i64 0
  %30 = getelementptr inbounds nuw %"struct.V3NumberData::ValueAndX", ptr %29, i32 0, i32 0
  %31 = load i32, ptr %30, align 4, !tbaa !37
  %32 = getelementptr inbounds [2 x i32], ptr %4, i64 0, i64 0
  store i32 %31, ptr %32, align 8, !tbaa !36
  %33 = getelementptr inbounds nuw %class.V3Number, ptr %5, i32 0, i32 0
  %34 = call noundef ptr @_ZNK12V3NumberData3numEv(ptr noundef nonnull align 8 dereferenceable(40) %33)
  %35 = getelementptr inbounds %"struct.V3NumberData::ValueAndX", ptr %34, i64 1
  %36 = getelementptr inbounds nuw %"struct.V3NumberData::ValueAndX", ptr %35, i32 0, i32 0
  %37 = load i32, ptr %36, align 4, !tbaa !37
  %38 = getelementptr inbounds [2 x i32], ptr %4, i64 0, i64 1
  store i32 %37, ptr %38, align 4, !tbaa !36
  %39 = load double, ptr %4, align 8, !tbaa !36
  call void @llvm.lifetime.end.p0(i64 8, ptr %4) #3
  ret double %39
}

; Function Attrs: mustprogress uwtable
define linkonce_odr dso_local noundef zeroext i1 @_ZNK8V3Number8isDoubleEv(ptr noundef nonnull align 8 dereferenceable(56) %0) #4 comdat align 2 {
  %2 = alloca ptr, align 8
  store ptr %0, ptr %2, align 8, !tbaa !4
  %3 = load ptr, ptr %2, align 8
  %4 = call noundef zeroext i8 @_ZNK8V3Number8dataTypeEv(ptr noundef nonnull align 8 dereferenceable(56) %3)
  %5 = icmp eq i8 %4, 2
  ret i1 %5
}

; Function Attrs: mustprogress nounwind uwtable
define linkonce_odr dso_local void @_ZN11V3ErrorCodeC2ENS_2enE(ptr noundef nonnull align 1 dereferenceable(1) %0, i8 noundef zeroext %1) unnamed_addr #7 comdat align 2 {
  %3 = alloca ptr, align 8
  %4 = alloca i8, align 1
  store ptr %0, ptr %3, align 8, !tbaa !123
  store i8 %1, ptr %4, align 1, !tbaa !125
  %5 = load ptr, ptr %3, align 8
  %6 = getelementptr inbounds nuw %class.V3ErrorCode, ptr %5, i32 0, i32 0
  %7 = load i8, ptr %4, align 1, !tbaa !125
  store i8 %7, ptr %6, align 1, !tbaa !127
  ret void
}

; Function Attrs: mustprogress uwtable
define dso_local noundef nonnull align 8 dereferenceable(56) ptr @_ZN8V3Number9opNegateDERKS_(ptr noundef nonnull align 8 dereferenceable(56) %0, ptr noundef nonnull align 8 dereferenceable(56) %1) #4 align 2 {
  %3 = alloca ptr, align 8
  %4 = alloca ptr, align 8
  %5 = alloca %class.V3ErrorCode, align 1
  %6 = alloca %class.V3ErrorCode, align 1
  store ptr %0, ptr %3, align 8, !tbaa !4
  store ptr %1, ptr %4, align 8, !tbaa !4
  %7 = load ptr, ptr %3, align 8
  br label %8

8:                                                ; preds = %2
  %9 = load ptr, ptr %4, align 8, !tbaa !4
  %10 = icmp ne ptr %7, %9
  %11 = xor i1 %10, true
  %12 = xor i1 %11, true
  %13 = xor i1 %12, true
  %14 = zext i1 %13 to i64
  %15 = call i64 @llvm.expect.i64(i64 %14, i64 0)
  %16 = icmp ne i64 %15, 0
  br i1 %16, label %17, label %23

17:                                               ; preds = %8
  call void @_ZN11V3ErrorCodeC2ENS_2enE(ptr noundef nonnull align 1 dereferenceable(1) %5, i8 noundef zeroext 4)
  %18 = getelementptr inbounds nuw %class.V3ErrorCode, ptr %5, i32 0, i32 0
  %19 = load i8, ptr %18, align 1
  %20 = call noundef nonnull align 8 dereferenceable(112) ptr @_ZN7V3Error19v3errorPrepFileLineB5cxx11E11V3ErrorCodePKci(i8 %19, ptr noundef @.str.15, i32 noundef 2437)
  %21 = call noundef nonnull align 8 dereferenceable(112) ptr @_ZN7V3Error10v3errorStrB5cxx11Ev()
  %22 = call noundef nonnull align 8 dereferenceable(8) ptr @_ZStlsISt11char_traitsIcEERSt13basic_ostreamIcT_ES5_PKc(ptr noundef nonnull align 8 dereferenceable(8) %21, ptr noundef @.str.51)
  call void @_ZNK8V3Number15v3errorEndFatalERKNSt7__cxx1119basic_ostringstreamIcSt11char_traitsIcESaIcEEE(ptr noundef nonnull align 8 dereferenceable(56) %7, ptr noundef nonnull align 8 dereferenceable(112) %22) #25
  unreachable

23:                                               ; preds = %8
  br label %24

24:                                               ; preds = %23
  br label %25

25:                                               ; preds = %24
  %26 = load ptr, ptr %4, align 8, !tbaa !4
  %27 = call noundef zeroext i1 @_ZNK8V3Number8isDoubleEv(ptr noundef nonnull align 8 dereferenceable(56) %26)
  %28 = xor i1 %27, true
  %29 = xor i1 %28, true
  %30 = xor i1 %29, true
  %31 = zext i1 %30 to i64
  %32 = call i64 @llvm.expect.i64(i64 %31, i64 0)
  %33 = icmp ne i64 %32, 0
  br i1 %33, label %34, label %43

34:                                               ; preds = %25
  call void @_ZN11V3ErrorCodeC2ENS_2enE(ptr noundef nonnull align 1 dereferenceable(1) %6, i8 noundef zeroext 4)
  %35 = getelementptr inbounds nuw %class.V3ErrorCode, ptr %6, i32 0, i32 0
  %36 = load i8, ptr %35, align 1
  %37 = call noundef nonnull align 8 dereferenceable(112) ptr @_ZN7V3Error19v3errorPrepFileLineB5cxx11E11V3ErrorCodePKci(i8 %36, ptr noundef @.str.15, i32 noundef 2438)
  %38 = call noundef nonnull align 8 dereferenceable(112) ptr @_ZN7V3Error10v3errorStrB5cxx11Ev()
  %39 = call noundef nonnull align 8 dereferenceable(8) ptr @_ZStlsISt11char_traitsIcEERSt13basic_ostreamIcT_ES5_PKc(ptr noundef nonnull align 8 dereferenceable(8) %38, ptr noundef @.str.74)
  %40 = load ptr, ptr %4, align 8, !tbaa !4
  %41 = call noundef nonnull align 8 dereferenceable(8) ptr @_ZlsRSoRK8V3Number(ptr noundef nonnull align 8 dereferenceable(8) %39, ptr noundef nonnull align 8 dereferenceable(56) %40)
  %42 = call noundef nonnull align 8 dereferenceable(8) ptr @_ZStlsISt11char_traitsIcEERSt13basic_ostreamIcT_ES5_c(ptr noundef nonnull align 8 dereferenceable(8) %41, i8 noundef signext 34)
  call void @_ZNK8V3Number15v3errorEndFatalERKNSt7__cxx1119basic_ostringstreamIcSt11char_traitsIcESaIcEEE(ptr noundef nonnull align 8 dereferenceable(56) %7, ptr noundef nonnull align 8 dereferenceable(112) %42) #25
  unreachable

43:                                               ; preds = %25
  br label %44

44:                                               ; preds = %43
  %45 = load ptr, ptr %4, align 8, !tbaa !4
  %46 = call noundef double @_ZNK8V3Number8toDoubleEv(ptr noundef nonnull align 8 dereferenceable(56) %45)
  %47 = fneg double %46
  %48 = call noundef nonnull align 8 dereferenceable(56) ptr @_ZN8V3Number9setDoubleEd(ptr noundef nonnull align 8 dereferenceable(56) %7, double noundef %47)
  ret ptr %48
}