; Function Attrs: mustprogress uwtable
define dso_local noundef nonnull align 8 dereferenceable(56) ptr @_ZN8V3Number9opNegateDERKS_(ptr noundef nonnull returned align 8 captures(address, ret: address, provenance) dereferenceable(56) %0, ptr noundef nonnull align 8 dereferenceable(56) %1) local_unnamed_addr #3 align 2 {
  %.not = icmp eq ptr %0, %1
  br i1 %.not, label %3, label %7, !prof !134

3:                                                ; preds = %2
  %4 = tail call noundef nonnull align 8 dereferenceable(112) ptr @_ZN7V3Error19v3errorPrepFileLineB5cxx11E11V3ErrorCodePKci(i8 4, ptr noundef nonnull @.str.15, i32 noundef 2437)
  %5 = tail call noundef nonnull align 8 dereferenceable(112) ptr @_ZN7V3Error10v3errorStrB5cxx11Ev()
  %6 = tail call noundef nonnull align 8 dereferenceable(8) ptr @_ZStlsISt11char_traitsIcEERSt13basic_ostreamIcT_ES5_PKc(ptr noundef nonnull align 8 dereferenceable(8) %5, ptr noundef nonnull @.str.51)
  tail call void @_ZNK8V3Number15v3errorEndFatalERKNSt7__cxx1119basic_ostringstreamIcSt11char_traitsIcESaIcEEE(ptr noundef nonnull align 8 dereferenceable(56) %0, ptr noundef nonnull align 8 dereferenceable(112) %6) #34
  unreachable

7:                                                ; preds = %2
  %8 = getelementptr inbounds nuw i8, ptr %1, i64 36
  %9 = load i8, ptr %8, align 4, !tbaa !40
  %10 = icmp eq i8 %9, 2
  br i1 %10, label %17, label %11, !prof !41

11:                                               ; preds = %7
  %12 = tail call noundef nonnull align 8 dereferenceable(112) ptr @_ZN7V3Error19v3errorPrepFileLineB5cxx11E11V3ErrorCodePKci(i8 4, ptr noundef nonnull @.str.15, i32 noundef 2438)
  %13 = tail call noundef nonnull align 8 dereferenceable(112) ptr @_ZN7V3Error10v3errorStrB5cxx11Ev()
  %14 = tail call noundef nonnull align 8 dereferenceable(8) ptr @_ZStlsISt11char_traitsIcEERSt13basic_ostreamIcT_ES5_PKc(ptr noundef nonnull align 8 dereferenceable(8) %13, ptr noundef nonnull @.str.74)
  %15 = tail call noundef nonnull align 8 dereferenceable(8) ptr @_ZlsRSoRK8V3Number(ptr noundef nonnull align 8 dereferenceable(8) %14, ptr noundef nonnull align 8 dereferenceable(56) %1)
  %16 = tail call noundef nonnull align 8 dereferenceable(8) ptr @_ZStlsISt11char_traitsIcEERSt13basic_ostreamIcT_ES5_c(ptr noundef nonnull align 8 dereferenceable(8) %15, i8 noundef signext 34)
  tail call void @_ZNK8V3Number15v3errorEndFatalERKNSt7__cxx1119basic_ostringstreamIcSt11char_traitsIcESaIcEEE(ptr noundef nonnull align 8 dereferenceable(56) %0, ptr noundef nonnull align 8 dereferenceable(112) %16) #34
  unreachable

17:                                               ; preds = %7
  %18 = getelementptr inbounds nuw i8, ptr %1, i64 32
  %19 = load i32, ptr %18, align 8
  %.not6 = icmp eq i32 %19, 64
  br i1 %.not6, label %_ZNK8V3Number8toDoubleEv.exit, label %.critedge.i, !prof !257

.critedge.i:                                      ; preds = %17
  %20 = tail call noundef nonnull align 8 dereferenceable(112) ptr @_ZN7V3Error19v3errorPrepFileLineB5cxx11E11V3ErrorCodePKci(i8 4, ptr noundef nonnull @.str.15, i32 noundef 951)
  %21 = tail call noundef nonnull align 8 dereferenceable(112) ptr @_ZN7V3Error10v3errorStrB5cxx11Ev()
  %22 = tail call noundef nonnull align 8 dereferenceable(8) ptr @_ZStlsISt11char_traitsIcEERSt13basic_ostreamIcT_ES5_PKc(ptr noundef nonnull align 8 dereferenceable(8) %21, ptr noundef nonnull @.str.46)
  tail call void @_ZNK8V3Number15v3errorEndFatalERKNSt7__cxx1119basic_ostringstreamIcSt11char_traitsIcESaIcEEE(ptr noundef nonnull readonly align 8 dereferenceable(56) %1, ptr noundef nonnull align 8 dereferenceable(112) %22) #34
  unreachable

_ZNK8V3Number8toDoubleEv.exit:                    ; preds = %17
  %23 = load i32, ptr %1, align 8, !tbaa !44
  %.sroa.0.0.insert.ext.i = zext i32 %23 to i64
  %24 = getelementptr inbounds nuw i8, ptr %1, i64 8
  %25 = load i32, ptr %24, align 8, !tbaa !44
  %.sroa.0.4.insert.ext.i = zext i32 %25 to i64
  %.sroa.0.4.insert.shift.i = shl nuw i64 %.sroa.0.4.insert.ext.i, 32
  %.sroa.0.4.insert.insert.i = or disjoint i64 %.sroa.0.4.insert.shift.i, %.sroa.0.0.insert.ext.i
  %26 = bitcast i64 %.sroa.0.4.insert.insert.i to double
  %27 = fneg double %26
  %28 = tail call noundef nonnull align 8 dereferenceable(56) ptr @_ZN8V3Number9setDoubleEd(ptr noundef nonnull align 8 dereferenceable(56) %0, double noundef %27)
  ret ptr %0
}